; Function Attrs: mustprogress uwtable
define void @_ZNK4base25PersistentMemoryAllocator13GetMemoryInfoEPNS0_10MemoryInfoE(ptr noundef nonnull align 8 captures(none) dereferenceable(48) %0, ptr noundef writeonly captures(none) initializes((0, 16)) %1) local_unnamed_addr #3 align 2 {
  %3 = getelementptr inbounds nuw i8, ptr %0, i64 16
  %4 = load i32, ptr %3, align 8, !tbaa !13
  %5 = getelementptr inbounds nuw i8, ptr %0, i64 8
  %6 = load ptr, ptr %5, align 8, !tbaa !20
  %7 = getelementptr inbounds nuw i8, ptr %6, i64 32
  %8 = load atomic volatile i32, ptr %7 monotonic, align 4
  %9 = sub i32 %4, %8
  %.sroa.speculated = tail call i32 @llvm.umax.i32(i32 %9, i32 16)
  %10 = zext i32 %4 to i64
  store i64 %10, ptr %1, align 8, !tbaa !66
  %11 = tail call noundef zeroext i1 @_ZNK4base25PersistentMemoryAllocator9IsCorruptEv(ptr noundef nonnull align 8 dereferenceable(48) %0)
  %12 = zext i32 %.sroa.speculated to i64
  %13 = add nsw i64 %12, -16
  %14 = select i1 %11, i64 0, i64 %13
  %15 = getelementptr inbounds nuw i8, ptr %1, i64 8
  store i64 %14, ptr %15, align 8, !tbaa !68
  ret void
}